target datalayout = "e-m:e-p270:32:32-p271:32:32-p272:64:64-i64:64-i128:128-f80:128-n8:16:32:64-S128"
target triple = "x86_64-pc-linux-gnu"

%class.JfrThreadLocal = type <{ ptr, ptr, ptr, ptr, ptr, ptr, ptr, ptr, ptr, ptr, %class.RefCountHandle, i64, i64, i64, i64, i64, i64, i64, i64, i64, i64, i64, i32, i32, i32, i16, i8, i8, i8, i8, i8, [5 x i8] }>
%class.RefCountHandle = type { ptr }

@_ZN6Thread12_thr_currentE = external thread_local global ptr, align 8

; Function Attrs: mustprogress nounwind uwtable
define linkonce_odr hidden noundef ptr @_ZN6Thread15current_or_nullEv() #1 comdat align 2 {
  %1 = call align 8 ptr @llvm.threadlocal.address.p0(ptr align 8 @_ZN6Thread12_thr_currentE)
  %2 = load ptr, ptr %1, align 8
  ret ptr %2
}

; Function Attrs: mustprogress nounwind uwtable
define linkonce_odr hidden noundef ptr @_ZN6Thread7currentEv() #1 comdat align 2 {
  %1 = alloca ptr, align 8
  %2 = call noundef ptr @_ZN6Thread15current_or_nullEv()
  store ptr %2, ptr %1, align 8
  %3 = load ptr, ptr %1, align 8
  ret ptr %3
}

; Function Attrs: mustprogress nounwind uwtable
define internal noundef ptr @_ZL14acquire_bufferv() #1 {
  %1 = call noundef ptr @_ZN6Thread7currentEv()
  %2 = call noundef ptr @_ZN10JfrStorage20acquire_thread_localEP6Threadm(ptr noundef %1, i64 noundef 0)
  ret ptr %2
}

; Function Attrs: mustprogress nounwind uwtable
define hidden noundef ptr @_ZNK14JfrThreadLocal19install_java_bufferEv(ptr noundef nonnull align 8 dereferenceable(195) %0) #1 align 2 {
  %2 = alloca ptr, align 8
  store ptr %0, ptr %2, align 8
  %3 = load ptr, ptr %2, align 8
  %4 = call noundef ptr @_ZL14acquire_bufferv()
  %5 = getelementptr inbounds %class.JfrThreadLocal, ptr %3, i32 0, i32 1
  store ptr %4, ptr %5, align 8
  %6 = getelementptr inbounds %class.JfrThreadLocal, ptr %3, i32 0, i32 1
  %7 = load ptr, ptr %6, align 8
  ret ptr %7
}

; Function Attrs: mustprogress nounwind uwtable
define hidden noundef ptr @_ZNK14JfrThreadLocal21install_native_bufferEv(ptr noundef nonnull align 8 dereferenceable(195) %0) #1 align 2 {
  %2 = alloca ptr, align 8
  store ptr %0, ptr %2, align 8
  %3 = load ptr, ptr %2, align 8
  %4 = call noundef ptr @_ZL14acquire_bufferv()
  %5 = getelementptr inbounds %class.JfrThreadLocal, ptr %3, i32 0, i32 2
  store ptr %4, ptr %5, align 8
  %6 = getelementptr inbounds %class.JfrThreadLocal, ptr %3, i32 0, i32 2
  %7 = load ptr, ptr %6, align 8
  ret ptr %7
}

; Function Attrs: mustprogress nounwind uwtable
define linkonce_odr hidden void @_ZN12CHeapObjBasedlEPv(ptr noundef %0) #1 comdat align 2 {
  %2 = alloca ptr, align 8
  store ptr %0, ptr %2, align 8
  %3 = load ptr, ptr %2, align 8
  call void @_Z8FreeHeapPv(ptr noundef %3)
  ret void
}

; Function Attrs: mustprogress nounwind uwtable
define linkonce_odr hidden noundef ptr @_ZNK14JfrThreadLocal11java_bufferEv(ptr noundef nonnull align 8 dereferenceable(195) %0) #1 comdat align 2 {
  %2 = alloca ptr, align 8
  store ptr %0, ptr %2, align 8
  %3 = load ptr, ptr %2, align 8
  %4 = getelementptr inbounds %class.JfrThreadLocal, ptr %3, i32 0, i32 1
  %5 = load ptr, ptr %4, align 8
  %6 = icmp ne ptr %5, null
  br i1 %6, label %7, label %10

7:                                                ; preds = %1
  %8 = getelementptr inbounds %class.JfrThreadLocal, ptr %3, i32 0, i32 1
  %9 = load ptr, ptr %8, align 8
  br label %12

10:                                               ; preds = %1
  %11 = call noundef ptr @_ZNK14JfrThreadLocal19install_java_bufferEv(ptr noundef nonnull align 8 dereferenceable(195) %3)
  br label %12

12:                                               ; preds = %10, %7
  %13 = phi ptr [ %9, %7 ], [ %11, %10 ]
  ret ptr %13
}

; Function Attrs: mustprogress nounwind uwtable
define linkonce_odr hidden noundef zeroext i1 @_ZNK14JfrThreadLocal15has_java_bufferEv(ptr noundef nonnull align 8 dereferenceable(195) %0) #1 comdat align 2 {
  %2 = alloca ptr, align 8
  store ptr %0, ptr %2, align 8
  %3 = load ptr, ptr %2, align 8
  %4 = getelementptr inbounds %class.JfrThreadLocal, ptr %3, i32 0, i32 1
  %5 = load ptr, ptr %4, align 8
  %6 = icmp ne ptr %5, null
  ret i1 %6
}

; Function Attrs: mustprogress nounwind uwtable
define linkonce_odr hidden noundef ptr @_ZNK14JfrThreadLocal13native_bufferEv(ptr noundef nonnull align 8 dereferenceable(195) %0) #1 comdat align 2 {
  %2 = alloca ptr, align 8
  store ptr %0, ptr %2, align 8
  %3 = load ptr, ptr %2, align 8
  %4 = getelementptr inbounds %class.JfrThreadLocal, ptr %3, i32 0, i32 2
  %5 = load ptr, ptr %4, align 8
  %6 = icmp ne ptr %5, null
  br i1 %6, label %7, label %10

7:                                                ; preds = %1
  %8 = getelementptr inbounds %class.JfrThreadLocal, ptr %3, i32 0, i32 2
  %9 = load ptr, ptr %8, align 8
  br label %12

10:                                               ; preds = %1
  %11 = call noundef ptr @_ZNK14JfrThreadLocal21install_native_bufferEv(ptr noundef nonnull align 8 dereferenceable(195) %3)
  br label %12

12:                                               ; preds = %10, %7
  %13 = phi ptr [ %9, %7 ], [ %11, %10 ]
  ret ptr %13
}

; Function Attrs: mustprogress nounwind uwtable
define linkonce_odr hidden noundef zeroext i1 @_ZNK14JfrThreadLocal17has_native_bufferEv(ptr noundef nonnull align 8 dereferenceable(195) %0) #1 comdat align 2 {
  %2 = alloca ptr, align 8
  store ptr %0, ptr %2, align 8
  %3 = load ptr, ptr %2, align 8
  %4 = getelementptr inbounds %class.JfrThreadLocal, ptr %3, i32 0, i32 2
  %5 = load ptr, ptr %4, align 8
  %6 = icmp ne ptr %5, null
  ret i1 %6
}

; Function Attrs: mustprogress nounwind uwtable
define linkonce_odr hidden noundef ptr @_ZN14JfrThreadLocal17java_event_writerEv(ptr noundef nonnull align 8 dereferenceable(195) %0) #1 comdat align 2 {
  %2 = alloca ptr, align 8
  store ptr %0, ptr %2, align 8
  %3 = load ptr, ptr %2, align 8
  %4 = getelementptr inbounds %class.JfrThreadLocal, ptr %3, i32 0, i32 0
  %5 = load ptr, ptr %4, align 8
  ret ptr %5
}

; Function Attrs: mustprogress nounwind uwtable
define linkonce_odr hidden noundef zeroext i1 @_ZNK14JfrThreadLocal21has_java_event_writerEv(ptr noundef nonnull align 8 dereferenceable(195) %0) #1 comdat align 2 {
  %2 = alloca ptr, align 8
  store ptr %0, ptr %2, align 8
  %3 = load ptr, ptr %2, align 8
  %4 = getelementptr inbounds %class.JfrThreadLocal, ptr %3, i32 0, i32 0
  %5 = load ptr, ptr %4, align 8
  %6 = icmp ne ptr %5, null
  ret i1 %6
}

; Function Attrs: mustprogress nounwind uwtable
define hidden void @_ZN14JfrThreadLocal7releaseEP6Thread(ptr noundef nonnull align 8 dereferenceable(195) %0, ptr noundef %1) #1 align 2 {
  %3 = alloca ptr, align 8
  %4 = alloca ptr, align 8
  store ptr %0, ptr %3, align 8
  store ptr %1, ptr %4, align 8
  %5 = load ptr, ptr %3, align 8
  %6 = call noundef zeroext i1 @_ZNK14JfrThreadLocal21has_java_event_writerEv(ptr noundef nonnull align 8 dereferenceable(195) %5)
  br i1 %6, label %7, label %10

7:                                                ; preds = %2
  %8 = call noundef ptr @_ZN14JfrThreadLocal17java_event_writerEv(ptr noundef nonnull align 8 dereferenceable(195) %5)
  call void @_ZN14JfrJavaSupport25destroy_global_jni_handleEP8_jobject(ptr noundef %8)
  %9 = getelementptr inbounds %class.JfrThreadLocal, ptr %5, i32 0, i32 0
  store ptr null, ptr %9, align 8
  br label %10

10:                                               ; preds = %7, %2
  %11 = call noundef zeroext i1 @_ZNK14JfrThreadLocal17has_native_bufferEv(ptr noundef nonnull align 8 dereferenceable(195) %5)
  br i1 %11, label %12, label %16

12:                                               ; preds = %10
  %13 = call noundef ptr @_ZNK14JfrThreadLocal13native_bufferEv(ptr noundef nonnull align 8 dereferenceable(195) %5)
  %14 = load ptr, ptr %4, align 8
  call void @_ZN10JfrStorage20release_thread_localEP9JfrBufferP6Thread(ptr noundef %13, ptr noundef %14)
  %15 = getelementptr inbounds %class.JfrThreadLocal, ptr %5, i32 0, i32 2
  store ptr null, ptr %15, align 8
  br label %16

16:                                               ; preds = %12, %10
  %17 = call noundef zeroext i1 @_ZNK14JfrThreadLocal15has_java_bufferEv(ptr noundef nonnull align 8 dereferenceable(195) %5)
  br i1 %17, label %18, label %22

18:                                               ; preds = %16
  %19 = call noundef ptr @_ZNK14JfrThreadLocal11java_bufferEv(ptr noundef nonnull align 8 dereferenceable(195) %5)
  %20 = load ptr, ptr %4, align 8
  call void @_ZN10JfrStorage20release_thread_localEP9JfrBufferP6Thread(ptr noundef %19, ptr noundef %20)
  %21 = getelementptr inbounds %class.JfrThreadLocal, ptr %5, i32 0, i32 1
  store ptr null, ptr %21, align 8
  br label %22

22:                                               ; preds = %18, %16
  %23 = getelementptr inbounds %class.JfrThreadLocal, ptr %5, i32 0, i32 8
  %24 = load ptr, ptr %23, align 8
  %25 = icmp ne ptr %24, null
  br i1 %25, label %26, label %30

26:                                               ; preds = %22
  %27 = getelementptr inbounds %class.JfrThreadLocal, ptr %5, i32 0, i32 8
  %28 = load ptr, ptr %27, align 8
  call void @_Z8FreeHeapPv(ptr noundef %28)
  %29 = getelementptr inbounds %class.JfrThreadLocal, ptr %5, i32 0, i32 8
  store ptr null, ptr %29, align 8
  br label %30

30:                                               ; preds = %26, %22
  %31 = getelementptr inbounds %class.JfrThreadLocal, ptr %5, i32 0, i32 4
  %32 = load ptr, ptr %31, align 8
  %33 = icmp ne ptr %32, null
  br i1 %33, label %34, label %38

34:                                               ; preds = %30
  %35 = getelementptr inbounds %class.JfrThreadLocal, ptr %5, i32 0, i32 4
  %36 = load ptr, ptr %35, align 8
  call void @_ZN9JfrBuffer11set_retiredEv(ptr noundef nonnull align 8 dereferenceable(48) %36)
  %37 = getelementptr inbounds %class.JfrThreadLocal, ptr %5, i32 0, i32 4
  store ptr null, ptr %37, align 8
  br label %38

38:                                               ; preds = %34, %30
  %39 = getelementptr inbounds %class.JfrThreadLocal, ptr %5, i32 0, i32 5
  %40 = load ptr, ptr %39, align 8
  %41 = icmp ne ptr %40, null
  br i1 %41, label %42, label %46

42:                                               ; preds = %38
  %43 = getelementptr inbounds %class.JfrThreadLocal, ptr %5, i32 0, i32 5
  %44 = load ptr, ptr %43, align 8
  call void @_ZN9JfrBuffer11set_retiredEv(ptr noundef nonnull align 8 dereferenceable(48) %44)
  %45 = getelementptr inbounds %class.JfrThreadLocal, ptr %5, i32 0, i32 5
  store ptr null, ptr %45, align 8
  br label %46

46:                                               ; preds = %42, %38
  %47 = getelementptr inbounds %class.JfrThreadLocal, ptr %5, i32 0, i32 6
  %48 = load ptr, ptr %47, align 8
  %49 = icmp ne ptr %48, null
  br i1 %49, label %50, label %54

50:                                               ; preds = %46
  %51 = getelementptr inbounds %class.JfrThreadLocal, ptr %5, i32 0, i32 6
  %52 = load ptr, ptr %51, align 8
  call void @_ZN9JfrBuffer11set_retiredEv(ptr noundef nonnull align 8 dereferenceable(48) %52)
  %53 = getelementptr inbounds %class.JfrThreadLocal, ptr %5, i32 0, i32 6
  store ptr null, ptr %53, align 8
  br label %54

54:                                               ; preds = %50, %46
  %55 = getelementptr inbounds %class.JfrThreadLocal, ptr %5, i32 0, i32 7
  %56 = load ptr, ptr %55, align 8
  %57 = icmp ne ptr %56, null
  br i1 %57, label %58, label %62

58:                                               ; preds = %54
  %59 = getelementptr inbounds %class.JfrThreadLocal, ptr %5, i32 0, i32 7
  %60 = load ptr, ptr %59, align 8
  call void @_ZN9JfrBuffer11set_retiredEv(ptr noundef nonnull align 8 dereferenceable(48) %60)
  %61 = getelementptr inbounds %class.JfrThreadLocal, ptr %5, i32 0, i32 7
  store ptr null, ptr %61, align 8
  br label %62

62:                                               ; preds = %58, %54
  %63 = getelementptr inbounds %class.JfrThreadLocal, ptr %5, i32 0, i32 9
  %64 = load ptr, ptr %63, align 8
  %65 = icmp ne ptr %64, null
  br i1 %65, label %66, label %73

66:                                               ; preds = %62
  %67 = getelementptr inbounds %class.JfrThreadLocal, ptr %5, i32 0, i32 9
  %68 = load ptr, ptr %67, align 8
  %69 = icmp eq ptr %68, null
  br i1 %69, label %71, label %70

70:                                               ; preds = %66
  call void @_ZN5ArenaD1Ev(ptr noundef nonnull align 8 dereferenceable(48) %68) #5
  call void @_ZN12CHeapObjBasedlEPv(ptr noundef %68) #5
  br label %71

71:                                               ; preds = %70, %66
  %72 = getelementptr inbounds %class.JfrThreadLocal, ptr %5, i32 0, i32 9
  store ptr null, ptr %72, align 8
  br label %73

73:                                               ; preds = %71, %62
  ret void
}