; Function Attrs: mustprogress nounwind uwtable
define hidden void @_ZN14JfrThreadLocal7releaseEP6Thread(ptr nocapture noundef nonnull align 8 dereferenceable(195) %0, ptr noundef %1) local_unnamed_addr #0 align 2 {
  %3 = load ptr, ptr %0, align 8
  %.not14 = icmp eq ptr %3, null
  br i1 %.not14, label %5, label %4

4:                                                ; preds = %2
  tail call void @_ZN14JfrJavaSupport25destroy_global_jni_handleEP8_jobject(ptr noundef nonnull %3) #13
  store ptr null, ptr %0, align 8
  br label %5

5:                                                ; preds = %4, %2
  %6 = getelementptr inbounds i8, ptr %0, i64 16
  %7 = load ptr, ptr %6, align 8
  %.not15 = icmp eq ptr %7, null
  br i1 %.not15, label %8, label %_ZNK14JfrThreadLocal13native_bufferEv.exit

_ZNK14JfrThreadLocal13native_bufferEv.exit:       ; preds = %5
  tail call void @_ZN10JfrStorage20release_thread_localEP9JfrBufferP6Thread(ptr noundef nonnull %7, ptr noundef %1) #13
  store ptr null, ptr %6, align 8
  br label %8

8:                                                ; preds = %_ZNK14JfrThreadLocal13native_bufferEv.exit, %5
  %9 = getelementptr inbounds i8, ptr %0, i64 8
  %10 = load ptr, ptr %9, align 8
  %.not16 = icmp eq ptr %10, null
  br i1 %.not16, label %11, label %_ZNK14JfrThreadLocal11java_bufferEv.exit

_ZNK14JfrThreadLocal11java_bufferEv.exit:         ; preds = %8
  tail call void @_ZN10JfrStorage20release_thread_localEP9JfrBufferP6Thread(ptr noundef nonnull %10, ptr noundef %1) #13
  store ptr null, ptr %9, align 8
  br label %11

11:                                               ; preds = %_ZNK14JfrThreadLocal11java_bufferEv.exit, %8
  %12 = getelementptr inbounds i8, ptr %0, i64 64
  %13 = load ptr, ptr %12, align 8
  %.not = icmp eq ptr %13, null
  br i1 %.not, label %15, label %14

14:                                               ; preds = %11
  tail call void @_Z8FreeHeapPv(ptr noundef nonnull %13) #13
  store ptr null, ptr %12, align 8
  br label %15

15:                                               ; preds = %14, %11
  %16 = getelementptr inbounds i8, ptr %0, i64 32
  %17 = load ptr, ptr %16, align 8
  %.not8 = icmp eq ptr %17, null
  br i1 %.not8, label %19, label %18

18:                                               ; preds = %15
  tail call void @_ZN9JfrBuffer11set_retiredEv(ptr noundef nonnull align 8 dereferenceable(48) %17) #13
  store ptr null, ptr %16, align 8
  br label %19

19:                                               ; preds = %18, %15
  %20 = getelementptr inbounds i8, ptr %0, i64 40
  %21 = load ptr, ptr %20, align 8
  %.not9 = icmp eq ptr %21, null
  br i1 %.not9, label %23, label %22

22:                                               ; preds = %19
  tail call void @_ZN9JfrBuffer11set_retiredEv(ptr noundef nonnull align 8 dereferenceable(48) %21) #13
  store ptr null, ptr %20, align 8
  br label %23

23:                                               ; preds = %22, %19
  %24 = getelementptr inbounds i8, ptr %0, i64 48
  %25 = load ptr, ptr %24, align 8
  %.not10 = icmp eq ptr %25, null
  br i1 %.not10, label %27, label %26

26:                                               ; preds = %23
  tail call void @_ZN9JfrBuffer11set_retiredEv(ptr noundef nonnull align 8 dereferenceable(48) %25) #13
  store ptr null, ptr %24, align 8
  br label %27

27:                                               ; preds = %26, %23
  %28 = getelementptr inbounds i8, ptr %0, i64 56
  %29 = load ptr, ptr %28, align 8
  %.not11 = icmp eq ptr %29, null
  br i1 %.not11, label %31, label %30

30:                                               ; preds = %27
  tail call void @_ZN9JfrBuffer11set_retiredEv(ptr noundef nonnull align 8 dereferenceable(48) %29) #13
  store ptr null, ptr %28, align 8
  br label %31

31:                                               ; preds = %30, %27
  %32 = getelementptr inbounds i8, ptr %0, i64 72
  %33 = load ptr, ptr %32, align 8
  %.not12 = icmp eq ptr %33, null
  br i1 %.not12, label %35, label %34

34:                                               ; preds = %31
  tail call void @_ZN5ArenaD1Ev(ptr noundef nonnull align 8 dereferenceable(48) %33) #13
  tail call void @_Z8FreeHeapPv(ptr noundef nonnull %33) #13
  store ptr null, ptr %32, align 8
  br label %35

35:                                               ; preds = %34, %31
  ret void
}